target datalayout = "e-m:e-p270:32:32-p271:32:32-p272:64:64-i64:64-i128:128-f80:128-n8:16:32:64-S128"
target triple = "x86_64-pc-linux-gnu"

%"struct.OpenColorIO_v2_5dev::GradingRGBM" = type { double, double, double, double }

; Function Attrs: mustprogress nounwind uwtable
define noundef zeroext i1 @_ZN19OpenColorIO_v2_5deveqERKNS_11GradingRGBMES2_(ptr noundef nonnull align 8 dereferenceable(32) %0, ptr noundef nonnull align 8 dereferenceable(32) %1) #0 {
  %3 = alloca ptr, align 8
  %4 = alloca ptr, align 8
  store ptr %0, ptr %3, align 8, !tbaa !3
  store ptr %1, ptr %4, align 8, !tbaa !3
  %5 = load ptr, ptr %3, align 8, !tbaa !3
  %6 = getelementptr inbounds nuw %"struct.OpenColorIO_v2_5dev::GradingRGBM", ptr %5, i32 0, i32 0
  %7 = load double, ptr %6, align 8, !tbaa !8
  %8 = load ptr, ptr %4, align 8, !tbaa !3
  %9 = getelementptr inbounds nuw %"struct.OpenColorIO_v2_5dev::GradingRGBM", ptr %8, i32 0, i32 0
  %10 = load double, ptr %9, align 8, !tbaa !8
  %11 = fcmp oeq double %7, %10
  br i1 %11, label %12, label %36

12:                                               ; preds = %2
  %13 = load ptr, ptr %3, align 8, !tbaa !3
  %14 = getelementptr inbounds nuw %"struct.OpenColorIO_v2_5dev::GradingRGBM", ptr %13, i32 0, i32 1
  %15 = load double, ptr %14, align 8, !tbaa !11
  %16 = load ptr, ptr %4, align 8, !tbaa !3
  %17 = getelementptr inbounds nuw %"struct.OpenColorIO_v2_5dev::GradingRGBM", ptr %16, i32 0, i32 1
  %18 = load double, ptr %17, align 8, !tbaa !11
  %19 = fcmp oeq double %15, %18
  br i1 %19, label %20, label %36

20:                                               ; preds = %12
  %21 = load ptr, ptr %3, align 8, !tbaa !3
  %22 = getelementptr inbounds nuw %"struct.OpenColorIO_v2_5dev::GradingRGBM", ptr %21, i32 0, i32 2
  %23 = load double, ptr %22, align 8, !tbaa !12
  %24 = load ptr, ptr %4, align 8, !tbaa !3
  %25 = getelementptr inbounds nuw %"struct.OpenColorIO_v2_5dev::GradingRGBM", ptr %24, i32 0, i32 2
  %26 = load double, ptr %25, align 8, !tbaa !12
  %27 = fcmp oeq double %23, %26
  br i1 %27, label %28, label %36

28:                                               ; preds = %20
  %29 = load ptr, ptr %3, align 8, !tbaa !3
  %30 = getelementptr inbounds nuw %"struct.OpenColorIO_v2_5dev::GradingRGBM", ptr %29, i32 0, i32 3
  %31 = load double, ptr %30, align 8, !tbaa !13
  %32 = load ptr, ptr %4, align 8, !tbaa !3
  %33 = getelementptr inbounds nuw %"struct.OpenColorIO_v2_5dev::GradingRGBM", ptr %32, i32 0, i32 3
  %34 = load double, ptr %33, align 8, !tbaa !13
  %35 = fcmp oeq double %31, %34
  br label %36

36:                                               ; preds = %28, %20, %12, %2
  %37 = phi i1 [ false, %20 ], [ false, %12 ], [ false, %2 ], [ %35, %28 ]
  ret i1 %37
}