; Function Attrs: mustprogress nofree norecurse nosync nounwind willreturn memory(argmem: read) uwtable
define noundef zeroext i1 @_ZN19OpenColorIO_v2_5deveqERKNS_11GradingRGBMES2_(ptr noundef nonnull readonly align 8 captures(none) dereferenceable(32) %0, ptr noundef nonnull readonly align 8 captures(none) dereferenceable(32) %1) local_unnamed_addr #0 {
  %3 = load double, ptr %0, align 8, !tbaa !3
  %4 = load double, ptr %1, align 8, !tbaa !3
  %5 = fcmp oeq double %3, %4
  br i1 %5, label %6, label %24

6:                                                ; preds = %2
  %7 = getelementptr inbounds nuw i8, ptr %0, i64 8
  %8 = load double, ptr %7, align 8, !tbaa !8
  %9 = getelementptr inbounds nuw i8, ptr %1, i64 8
  %10 = load double, ptr %9, align 8, !tbaa !8
  %11 = fcmp oeq double %8, %10
  br i1 %11, label %12, label %24

12:                                               ; preds = %6
  %13 = getelementptr inbounds nuw i8, ptr %0, i64 16
  %14 = load double, ptr %13, align 8, !tbaa !9
  %15 = getelementptr inbounds nuw i8, ptr %1, i64 16
  %16 = load double, ptr %15, align 8, !tbaa !9
  %17 = fcmp oeq double %14, %16
  br i1 %17, label %18, label %24

18:                                               ; preds = %12
  %19 = getelementptr inbounds nuw i8, ptr %0, i64 24
  %20 = load double, ptr %19, align 8, !tbaa !10
  %21 = getelementptr inbounds nuw i8, ptr %1, i64 24
  %22 = load double, ptr %21, align 8, !tbaa !10
  %23 = fcmp oeq double %20, %22
  br label %24

24:                                               ; preds = %18, %12, %6, %2
  %25 = phi i1 [ false, %12 ], [ false, %6 ], [ false, %2 ], [ %23, %18 ]
  ret i1 %25
}